; Function Attrs: nounwind sspstrong uwtable
define internal i64 @int_lt(i64 noundef %0, i64 noundef %1) #2 {
  %3 = and i64 %0, 1
  %.not = icmp eq i64 %3, 0
  br i1 %.not, label %28, label %4

4:                                                ; preds = %2
  %5 = and i64 %1, 1
  %.not.i = icmp eq i64 %5, 0
  br i1 %.not.i, label %11, label %6

6:                                                ; preds = %4
  %7 = ashr i64 %0, 1
  %8 = ashr i64 %1, 1
  %9 = icmp slt i64 %7, %8
  %10 = select i1 %9, i64 20, i64 0
  br label %fix_lt.exit

11:                                               ; preds = %4
  %12 = icmp eq i64 %1, 0
  %13 = and i64 %1, 6
  %14 = icmp ne i64 %13, 0
  %15 = or i1 %12, %14
  br i1 %15, label %rbimpl_RB_TYPE_P_fastpath.exit.thread.i, label %rbimpl_RB_TYPE_P_fastpath.exit.i

rbimpl_RB_TYPE_P_fastpath.exit.i:                 ; preds = %11
  %16 = inttoptr i64 %1 to ptr
  %17 = load i64, ptr %16, align 8, !tbaa !11
  %18 = and i64 %17, 31
  switch i64 %18, label %RB_FLOAT_TYPE_P.exit.thread16.i [
    i64 10, label %19
    i64 4, label %RB_FLOAT_TYPE_P.exit.thread.i
  ]

19:                                               ; preds = %rbimpl_RB_TYPE_P_fastpath.exit.i
  %20 = tail call i64 @rb_big_cmp(i64 noundef %1, i64 noundef %0) #26
  %21 = icmp eq i64 %20, 3
  %22 = select i1 %21, i64 20, i64 0
  br label %fix_lt.exit

rbimpl_RB_TYPE_P_fastpath.exit.thread.i:          ; preds = %11
  %23 = and i64 %1, 2
  %.not18.i = icmp eq i64 %23, 0
  br i1 %.not18.i, label %RB_FLOAT_TYPE_P.exit.thread16.i, label %RB_FLOAT_TYPE_P.exit.thread.i

RB_FLOAT_TYPE_P.exit.thread.i:                    ; preds = %rbimpl_RB_TYPE_P_fastpath.exit.thread.i, %rbimpl_RB_TYPE_P_fastpath.exit.i
  %24 = tail call i64 @rb_integer_float_cmp(i64 noundef %0, i64 noundef %1) #26
  %25 = icmp eq i64 %24, -1
  %26 = select i1 %25, i64 20, i64 0
  br label %fix_lt.exit

RB_FLOAT_TYPE_P.exit.thread16.i:                  ; preds = %rbimpl_RB_TYPE_P_fastpath.exit.thread.i, %rbimpl_RB_TYPE_P_fastpath.exit.i
  %27 = tail call i64 @rb_num_coerce_relop(i64 noundef %0, i64 noundef %1, i64 noundef 60)
  br label %fix_lt.exit

28:                                               ; preds = %2
  %29 = icmp eq i64 %0, 0
  %30 = and i64 %0, 6
  %31 = icmp ne i64 %30, 0
  %32 = or i1 %29, %31
  br i1 %32, label %fix_lt.exit, label %rbimpl_RB_TYPE_P_fastpath.exit

rbimpl_RB_TYPE_P_fastpath.exit:                   ; preds = %28
  %33 = inttoptr i64 %0 to ptr
  %34 = load i64, ptr %33, align 8, !tbaa !11
  %35 = and i64 %34, 31
  %36 = icmp eq i64 %35, 10
  br i1 %36, label %37, label %fix_lt.exit

37:                                               ; preds = %rbimpl_RB_TYPE_P_fastpath.exit
  %38 = tail call i64 @rb_big_lt(i64 noundef %0, i64 noundef %1) #26
  br label %fix_lt.exit

fix_lt.exit:                                      ; preds = %28, %RB_FLOAT_TYPE_P.exit.thread16.i, %RB_FLOAT_TYPE_P.exit.thread.i, %19, %6, %rbimpl_RB_TYPE_P_fastpath.exit, %37
  %.0 = phi i64 [ %38, %37 ], [ 4, %rbimpl_RB_TYPE_P_fastpath.exit ], [ %10, %6 ], [ %22, %19 ], [ %26, %RB_FLOAT_TYPE_P.exit.thread.i ], [ %27, %RB_FLOAT_TYPE_P.exit.thread16.i ], [ 4, %28 ]
  ret i64 %.0
}